target datalayout = "e-m:e-p270:32:32-p271:32:32-p272:64:64-i64:64-i128:128-f80:128-n8:16:32:64-S128"
target triple = "x86_64-pc-linux-gnu"

%struct.config = type { %struct.cliConnInfo, %struct.timeval, ptr, i32, %struct.cliSSLconfig, i64, i64, i32, i32, i32, i32, i32, i32, i32, i32, i32, i32, i64, i32, i32, i32, i32, i32, i32, i32, i32, i32, i32, i32, i32, i32, ptr, ptr, i32, i32, i64, i32, i32, i64, i64, i32, i32, ptr, i32, i32, i32, i32, ptr, ptr, [128 x i8], ptr, i32, i32, i32, i32, i32, ptr, i32, i32, %struct.clusterManagerCommand, i32, i32, i32, i32, i32, i32, ptr, ptr, ptr, i32, i32 }
%struct.cliConnInfo = type { ptr, i32, i32, ptr, ptr }
%struct.timeval = type { i64, i64 }
%struct.cliSSLconfig = type { ptr, ptr, ptr, i32, ptr, ptr, ptr, ptr }
%struct.clusterManagerCommand = type { ptr, i32, ptr, ptr, i32, i32, ptr, ptr, ptr, i32, ptr, i32, i32, i32, float, ptr, ptr, ptr, i32 }
%struct.redisReply = type { i32, i64, double, i64, ptr, [4 x i8], i64, ptr }
%struct.clusterManagerNode = type { ptr, ptr, ptr, i32, i32, i64, i64, i64, i32, ptr, ptr, i32, [16384 x i8], i32, i32, ptr, ptr, ptr, i32, i32, float, i32 }
%struct.redisContext = type { ptr, i32, [128 x i8], i32, i32, ptr, ptr, i32, ptr, ptr, %struct.anon, %struct.anon.0, ptr, i64, ptr, ptr, ptr, ptr }
%struct.anon = type { ptr, ptr, i32 }
%struct.anon.0 = type { ptr }

@stderr = external global ptr, align 8
@config = internal global %struct.config zeroinitializer, align 8
@.str.168 = private unnamed_addr constant [35 x i8] c"Node %s:%d replied with error:\0A%s\0A\00", align 1
@.str.184 = private unnamed_addr constant [15 x i8] c"TLS Error: %s\0A\00", align 1
@.str.185 = private unnamed_addr constant [31 x i8] c"Could not connect to Redis at \00", align 1
@.str.186 = private unnamed_addr constant [11 x i8] c"%s:%d: %s\0A\00", align 1
@.str.187 = private unnamed_addr constant [8 x i8] c"AUTH %s\00", align 1
@.str.188 = private unnamed_addr constant [11 x i8] c"AUTH %s %s\00", align 1

; Function Attrs: nounwind uwtable
define internal i32 @clusterManagerCheckRedisReply(ptr noundef %0, ptr noundef %1, ptr noundef %2) #0 {
  %4 = alloca i32, align 4
  %5 = alloca ptr, align 8
  %6 = alloca ptr, align 8
  %7 = alloca ptr, align 8
  %8 = alloca i32, align 4
  %9 = alloca i32, align 4
  store ptr %0, ptr %5, align 8, !tbaa !88
  store ptr %1, ptr %6, align 8, !tbaa !46
  store ptr %2, ptr %7, align 8, !tbaa !42
  call void @llvm.lifetime.start.p0(i64 4, ptr %8) #15
  store i32 0, ptr %8, align 4, !tbaa !10
  %10 = load ptr, ptr %6, align 8, !tbaa !46
  %11 = icmp ne ptr %10, null
  br i1 %11, label %12, label %18

12:                                               ; preds = %3
  %13 = load ptr, ptr %6, align 8, !tbaa !46
  %14 = getelementptr inbounds nuw %struct.redisReply, ptr %13, i32 0, i32 0
  %15 = load i32, ptr %14, align 8, !tbaa !68
  %16 = icmp eq i32 %15, 6
  %17 = zext i1 %16 to i32
  store i32 %17, ptr %8, align 4, !tbaa !10
  br i1 %16, label %18, label %54

18:                                               ; preds = %12, %3
  %19 = load i32, ptr %8, align 4, !tbaa !10
  %20 = icmp ne i32 %19, 0
  br i1 %20, label %21, label %53

21:                                               ; preds = %18
  %22 = load ptr, ptr %7, align 8, !tbaa !42
  %23 = icmp ne ptr %22, null
  br i1 %23, label %24, label %42

24:                                               ; preds = %21
  %25 = load ptr, ptr %6, align 8, !tbaa !46
  %26 = getelementptr inbounds nuw %struct.redisReply, ptr %25, i32 0, i32 3
  %27 = load i64, ptr %26, align 8, !tbaa !76
  %28 = add i64 %27, 1
  %29 = mul i64 %28, 1
  %30 = call noalias ptr @zmalloc(i64 noundef %29) #18
  %31 = load ptr, ptr %7, align 8, !tbaa !42
  store ptr %30, ptr %31, align 8, !tbaa !5
  %32 = load ptr, ptr %7, align 8, !tbaa !42
  %33 = load ptr, ptr %32, align 8, !tbaa !5
  %34 = load ptr, ptr %6, align 8, !tbaa !46
  %35 = getelementptr inbounds nuw %struct.redisReply, ptr %34, i32 0, i32 4
  %36 = load ptr, ptr %35, align 8, !tbaa !54
  %37 = load ptr, ptr %6, align 8, !tbaa !46
  %38 = getelementptr inbounds nuw %struct.redisReply, ptr %37, i32 0, i32 3
  %39 = load i64, ptr %38, align 8, !tbaa !76
  %40 = add i64 %39, 1
  %41 = call i64 @redis_strlcpy(ptr noundef %33, ptr noundef %36, i64 noundef %40)
  br label %52

42:                                               ; preds = %21
  %43 = load ptr, ptr %5, align 8, !tbaa !88
  %44 = getelementptr inbounds nuw %struct.clusterManagerNode, ptr %43, i32 0, i32 2
  %45 = load ptr, ptr %44, align 8, !tbaa !90
  %46 = load ptr, ptr %5, align 8, !tbaa !88
  %47 = getelementptr inbounds nuw %struct.clusterManagerNode, ptr %46, i32 0, i32 3
  %48 = load i32, ptr %47, align 8, !tbaa !93
  %49 = load ptr, ptr %6, align 8, !tbaa !46
  %50 = getelementptr inbounds nuw %struct.redisReply, ptr %49, i32 0, i32 4
  %51 = load ptr, ptr %50, align 8, !tbaa !54
  call void (i32, ptr, ...) @clusterManagerLog(i32 noundef 3, ptr noundef @.str.168, ptr noundef %45, i32 noundef %48, ptr noundef %51)
  br label %52

52:                                               ; preds = %42, %24
  br label %53

53:                                               ; preds = %52, %18
  store i32 0, ptr %4, align 4
  store i32 1, ptr %9, align 4
  br label %55

54:                                               ; preds = %12
  store i32 1, ptr %4, align 4
  store i32 1, ptr %9, align 4
  br label %55

55:                                               ; preds = %54, %53
  call void @llvm.lifetime.end.p0(i64 4, ptr %8) #15
  %56 = load i32, ptr %4, align 4
  ret i32 %56
}

; Function Attrs: nounwind uwtable
define internal i32 @clusterManagerNodeConnect(ptr noundef %0) #0 {
  %2 = alloca i32, align 4
  %3 = alloca ptr, align 8
  %4 = alloca ptr, align 8
  %5 = alloca i32, align 4
  %6 = alloca ptr, align 8
  %7 = alloca i32, align 4
  store ptr %0, ptr %3, align 8, !tbaa !88
  %8 = load ptr, ptr %3, align 8, !tbaa !88
  %9 = getelementptr inbounds nuw %struct.clusterManagerNode, ptr %8, i32 0, i32 0
  %10 = load ptr, ptr %9, align 8, !tbaa !126
  %11 = icmp ne ptr %10, null
  br i1 %11, label %12, label %16

12:                                               ; preds = %1
  %13 = load ptr, ptr %3, align 8, !tbaa !88
  %14 = getelementptr inbounds nuw %struct.clusterManagerNode, ptr %13, i32 0, i32 0
  %15 = load ptr, ptr %14, align 8, !tbaa !126
  call void @redisFree(ptr noundef %15)
  br label %16

16:                                               ; preds = %12, %1
  %17 = load ptr, ptr %3, align 8, !tbaa !88
  %18 = getelementptr inbounds nuw %struct.clusterManagerNode, ptr %17, i32 0, i32 2
  %19 = load ptr, ptr %18, align 8, !tbaa !90
  %20 = load ptr, ptr %3, align 8, !tbaa !88
  %21 = getelementptr inbounds nuw %struct.clusterManagerNode, ptr %20, i32 0, i32 3
  %22 = load i32, ptr %21, align 8, !tbaa !93
  %23 = load i64, ptr getelementptr inbounds nuw (%struct.config, ptr @config, i32 0, i32 1), align 8
  %24 = load i64, ptr getelementptr inbounds nuw ({ i64, i64 }, ptr getelementptr inbounds nuw (%struct.config, ptr @config, i32 0, i32 1), i32 0, i32 1), align 8
  %25 = call ptr @redisConnectWrapper(ptr noundef %19, i32 noundef %22, i64 %23, i64 %24)
  %26 = load ptr, ptr %3, align 8, !tbaa !88
  %27 = getelementptr inbounds nuw %struct.clusterManagerNode, ptr %26, i32 0, i32 0
  store ptr %25, ptr %27, align 8, !tbaa !126
  %28 = load ptr, ptr %3, align 8, !tbaa !88
  %29 = getelementptr inbounds nuw %struct.clusterManagerNode, ptr %28, i32 0, i32 0
  %30 = load ptr, ptr %29, align 8, !tbaa !126
  %31 = getelementptr inbounds nuw %struct.redisContext, ptr %30, i32 0, i32 1
  %32 = load i32, ptr %31, align 8, !tbaa !181
  %33 = icmp ne i32 %32, 0
  br i1 %33, label %59, label %34

34:                                               ; preds = %16
  %35 = load i32, ptr getelementptr inbounds nuw (%struct.config, ptr @config, i32 0, i32 3), align 8, !tbaa !321
  %36 = icmp ne i32 %35, 0
  br i1 %36, label %37, label %59

37:                                               ; preds = %34
  call void @llvm.lifetime.start.p0(i64 8, ptr %4) #15
  store ptr null, ptr %4, align 8, !tbaa !5
  %38 = load ptr, ptr %3, align 8, !tbaa !88
  %39 = getelementptr inbounds nuw %struct.clusterManagerNode, ptr %38, i32 0, i32 0
  %40 = load ptr, ptr %39, align 8, !tbaa !126
  %41 = call i32 @cliSecureConnection(ptr noundef %40, ptr noundef byval(%struct.cliSSLconfig) align 8 getelementptr inbounds nuw (%struct.config, ptr @config, i32 0, i32 4), ptr noundef %4)
  %42 = icmp eq i32 %41, -1
  br i1 %42, label %43, label %55

43:                                               ; preds = %37
  %44 = load ptr, ptr %4, align 8, !tbaa !5
  %45 = icmp ne ptr %44, null
  br i1 %45, label %46, label %55

46:                                               ; preds = %43
  %47 = load ptr, ptr @stderr, align 8, !tbaa !12
  %48 = load ptr, ptr %4, align 8, !tbaa !5
  %49 = call i32 (ptr, ptr, ...) @fprintf(ptr noundef %47, ptr noundef @.str.184, ptr noundef %48) #15
  %50 = load ptr, ptr %3, align 8, !tbaa !88
  %51 = getelementptr inbounds nuw %struct.clusterManagerNode, ptr %50, i32 0, i32 0
  %52 = load ptr, ptr %51, align 8, !tbaa !126
  call void @redisFree(ptr noundef %52)
  %53 = load ptr, ptr %3, align 8, !tbaa !88
  %54 = getelementptr inbounds nuw %struct.clusterManagerNode, ptr %53, i32 0, i32 0
  store ptr null, ptr %54, align 8, !tbaa !126
  store i32 0, ptr %2, align 4
  store i32 1, ptr %5, align 4
  br label %56

55:                                               ; preds = %43, %37
  store i32 0, ptr %5, align 4
  br label %56

56:                                               ; preds = %55, %46
  call void @llvm.lifetime.end.p0(i64 8, ptr %4) #15
  %57 = load i32, ptr %5, align 4
  switch i32 %57, label %131 [
    i32 0, label %58
    i32 1, label %129
  ]

58:                                               ; preds = %56
  br label %59

59:                                               ; preds = %58, %34, %16
  %60 = load ptr, ptr %3, align 8, !tbaa !88
  %61 = getelementptr inbounds nuw %struct.clusterManagerNode, ptr %60, i32 0, i32 0
  %62 = load ptr, ptr %61, align 8, !tbaa !126
  %63 = getelementptr inbounds nuw %struct.redisContext, ptr %62, i32 0, i32 1
  %64 = load i32, ptr %63, align 8, !tbaa !181
  %65 = icmp ne i32 %64, 0
  br i1 %65, label %66, label %87

66:                                               ; preds = %59
  %67 = load ptr, ptr @stderr, align 8, !tbaa !12
  %68 = call i32 (ptr, ptr, ...) @fprintf(ptr noundef %67, ptr noundef @.str.185) #15
  %69 = load ptr, ptr @stderr, align 8, !tbaa !12
  %70 = load ptr, ptr %3, align 8, !tbaa !88
  %71 = getelementptr inbounds nuw %struct.clusterManagerNode, ptr %70, i32 0, i32 2
  %72 = load ptr, ptr %71, align 8, !tbaa !90
  %73 = load ptr, ptr %3, align 8, !tbaa !88
  %74 = getelementptr inbounds nuw %struct.clusterManagerNode, ptr %73, i32 0, i32 3
  %75 = load i32, ptr %74, align 8, !tbaa !93
  %76 = load ptr, ptr %3, align 8, !tbaa !88
  %77 = getelementptr inbounds nuw %struct.clusterManagerNode, ptr %76, i32 0, i32 0
  %78 = load ptr, ptr %77, align 8, !tbaa !126
  %79 = getelementptr inbounds nuw %struct.redisContext, ptr %78, i32 0, i32 2
  %80 = getelementptr inbounds [128 x i8], ptr %79, i64 0, i64 0
  %81 = call i32 (ptr, ptr, ...) @fprintf(ptr noundef %69, ptr noundef @.str.186, ptr noundef %72, i32 noundef %75, ptr noundef %80) #15
  %82 = load ptr, ptr %3, align 8, !tbaa !88
  %83 = getelementptr inbounds nuw %struct.clusterManagerNode, ptr %82, i32 0, i32 0
  %84 = load ptr, ptr %83, align 8, !tbaa !126
  call void @redisFree(ptr noundef %84)
  %85 = load ptr, ptr %3, align 8, !tbaa !88
  %86 = getelementptr inbounds nuw %struct.clusterManagerNode, ptr %85, i32 0, i32 0
  store ptr null, ptr %86, align 8, !tbaa !126
  store i32 0, ptr %2, align 4
  br label %129

87:                                               ; preds = %59
  %88 = load ptr, ptr %3, align 8, !tbaa !88
  %89 = getelementptr inbounds nuw %struct.clusterManagerNode, ptr %88, i32 0, i32 0
  %90 = load ptr, ptr %89, align 8, !tbaa !126
  %91 = getelementptr inbounds nuw %struct.redisContext, ptr %90, i32 0, i32 3
  %92 = load i32, ptr %91, align 4, !tbaa !322
  %93 = call i32 @anetKeepAlive(ptr noundef null, i32 noundef %92, i32 noundef 15)
  %94 = load ptr, ptr getelementptr inbounds nuw (%struct.cliConnInfo, ptr @config, i32 0, i32 3), align 8, !tbaa !194
  %95 = icmp ne ptr %94, null
  br i1 %95, label %96, label %128

96:                                               ; preds = %87
  call void @llvm.lifetime.start.p0(i64 8, ptr %6) #15
  %97 = load ptr, ptr getelementptr inbounds nuw (%struct.cliConnInfo, ptr @config, i32 0, i32 4), align 8, !tbaa !195
  %98 = icmp eq ptr %97, null
  br i1 %98, label %99, label %105

99:                                               ; preds = %96
  %100 = load ptr, ptr %3, align 8, !tbaa !88
  %101 = getelementptr inbounds nuw %struct.clusterManagerNode, ptr %100, i32 0, i32 0
  %102 = load ptr, ptr %101, align 8, !tbaa !126
  %103 = load ptr, ptr getelementptr inbounds nuw (%struct.cliConnInfo, ptr @config, i32 0, i32 3), align 8, !tbaa !194
  %104 = call ptr (ptr, ptr, ...) @redisCommand(ptr noundef %102, ptr noundef @.str.187, ptr noundef %103)
  store ptr %104, ptr %6, align 8, !tbaa !46
  br label %112

105:                                              ; preds = %96
  %106 = load ptr, ptr %3, align 8, !tbaa !88
  %107 = getelementptr inbounds nuw %struct.clusterManagerNode, ptr %106, i32 0, i32 0
  %108 = load ptr, ptr %107, align 8, !tbaa !126
  %109 = load ptr, ptr getelementptr inbounds nuw (%struct.cliConnInfo, ptr @config, i32 0, i32 4), align 8, !tbaa !195
  %110 = load ptr, ptr getelementptr inbounds nuw (%struct.cliConnInfo, ptr @config, i32 0, i32 3), align 8, !tbaa !194
  %111 = call ptr (ptr, ptr, ...) @redisCommand(ptr noundef %108, ptr noundef @.str.188, ptr noundef %109, ptr noundef %110)
  store ptr %111, ptr %6, align 8, !tbaa !46
  br label %112

112:                                              ; preds = %105, %99
  call void @llvm.lifetime.start.p0(i64 4, ptr %7) #15
  %113 = load ptr, ptr %3, align 8, !tbaa !88
  %114 = load ptr, ptr %6, align 8, !tbaa !46
  %115 = call i32 @clusterManagerCheckRedisReply(ptr noundef %113, ptr noundef %114, ptr noundef null)
  store i32 %115, ptr %7, align 4, !tbaa !10
  %116 = load ptr, ptr %6, align 8, !tbaa !46
  %117 = icmp ne ptr %116, null
  br i1 %117, label %118, label %120

118:                                              ; preds = %112
  %119 = load ptr, ptr %6, align 8, !tbaa !46
  call void @freeReplyObject(ptr noundef %119)
  br label %120

120:                                              ; preds = %118, %112
  %121 = load i32, ptr %7, align 4, !tbaa !10
  %122 = icmp ne i32 %121, 0
  br i1 %122, label %124, label %123

123:                                              ; preds = %120
  store i32 0, ptr %2, align 4
  store i32 1, ptr %5, align 4
  br label %125

124:                                              ; preds = %120
  store i32 0, ptr %5, align 4
  br label %125

125:                                              ; preds = %124, %123
  call void @llvm.lifetime.end.p0(i64 4, ptr %7) #15
  call void @llvm.lifetime.end.p0(i64 8, ptr %6) #15
  %126 = load i32, ptr %5, align 4
  switch i32 %126, label %131 [
    i32 0, label %127
    i32 1, label %129
  ]

127:                                              ; preds = %125
  br label %128

128:                                              ; preds = %127, %87
  store i32 1, ptr %2, align 4
  br label %129

129:                                              ; preds = %128, %125, %66, %56
  %130 = load i32, ptr %2, align 4
  ret i32 %130

131:                                              ; preds = %125, %56
  unreachable
}