; Function Attrs: nounwind uwtable
define internal fastcc range(i32 0, 2) i32 @clusterManagerNodeConnect(ptr noundef captures(none) %0) unnamed_addr #0 {
  %2 = alloca ptr, align 8
  %3 = load ptr, ptr %0, align 8, !tbaa !82
  %.not = icmp eq ptr %3, null
  br i1 %.not, label %5, label %4

4:                                                ; preds = %1
  tail call void @redisFree(ptr noundef nonnull %3) #33
  br label %5

5:                                                ; preds = %4, %1
  %6 = getelementptr inbounds nuw i8, ptr %0, i64 16
  %7 = load ptr, ptr %6, align 8, !tbaa !74
  %8 = getelementptr inbounds nuw i8, ptr %0, i64 24
  %9 = load i32, ptr %8, align 8, !tbaa !77
  %10 = load i64, ptr getelementptr inbounds nuw (i8, ptr @config, i64 32), align 8
  %11 = load i64, ptr getelementptr inbounds nuw (i8, ptr @config, i64 40), align 8
  %12 = tail call ptr @redisConnectWrapper(ptr noundef %7, i32 noundef %9, i64 %10, i64 %11) #33
  store ptr %12, ptr %0, align 8, !tbaa !82
  %13 = getelementptr inbounds nuw i8, ptr %12, i64 8
  %14 = load i32, ptr %13, align 8, !tbaa !157
  %15 = icmp eq i32 %14, 0
  %16 = load i32, ptr getelementptr inbounds nuw (i8, ptr @config, i64 56), align 8
  %17 = icmp ne i32 %16, 0
  %or.cond = select i1 %15, i1 %17, i1 false
  br i1 %or.cond, label %18, label %27

18:                                               ; preds = %5
  call void @llvm.lifetime.start.p0(i64 8, ptr nonnull %2) #33
  store ptr null, ptr %2, align 8, !tbaa !24
  %19 = call i32 @cliSecureConnection(ptr noundef nonnull %12, ptr noundef nonnull byval(%struct.cliSSLconfig) align 8 getelementptr inbounds nuw (i8, ptr @config, i64 64), ptr noundef nonnull %2) #33
  %20 = icmp eq i32 %19, -1
  %21 = load ptr, ptr %2, align 8
  %22 = icmp ne ptr %21, null
  %or.cond3 = select i1 %20, i1 %22, i1 false
  br i1 %or.cond3, label %23, label %.thread

.thread:                                          ; preds = %18
  call void @llvm.lifetime.end.p0(i64 8, ptr nonnull %2) #33
  %.pre = load ptr, ptr %0, align 8, !tbaa !82
  %.phi.trans.insert = getelementptr inbounds nuw i8, ptr %.pre, i64 8
  %.pre51 = load i32, ptr %.phi.trans.insert, align 8, !tbaa !157
  br label %27

23:                                               ; preds = %18
  %24 = load ptr, ptr @stderr, align 8, !tbaa !5
  %25 = call i32 (ptr, ptr, ...) @fprintf(ptr noundef %24, ptr noundef nonnull @.str.184, ptr noundef nonnull %21) #39
  %26 = load ptr, ptr %0, align 8, !tbaa !82
  call void @redisFree(ptr noundef %26) #33
  store ptr null, ptr %0, align 8, !tbaa !82
  call void @llvm.lifetime.end.p0(i64 8, ptr nonnull %2) #33
  br label %clusterManagerCheckRedisReply.exit.thread43

27:                                               ; preds = %.thread, %5
  %28 = phi i32 [ %.pre51, %.thread ], [ %14, %5 ]
  %29 = phi ptr [ %.pre, %.thread ], [ %12, %5 ]
  %.not34 = icmp eq i32 %28, 0
  br i1 %.not34, label %40, label %30

30:                                               ; preds = %27
  %31 = load ptr, ptr @stderr, align 8, !tbaa !5
  %32 = call i64 @fwrite(ptr nonnull @.str.185, i64 30, i64 1, ptr %31) #34
  %33 = load ptr, ptr @stderr, align 8, !tbaa !5
  %34 = load ptr, ptr %6, align 8, !tbaa !74
  %35 = load i32, ptr %8, align 8, !tbaa !77
  %36 = load ptr, ptr %0, align 8, !tbaa !82
  %37 = getelementptr inbounds nuw i8, ptr %36, i64 12
  %38 = call i32 (ptr, ptr, ...) @fprintf(ptr noundef %33, ptr noundef nonnull @.str.186, ptr noundef %34, i32 noundef %35, ptr noundef nonnull %37) #39
  %39 = load ptr, ptr %0, align 8, !tbaa !82
  call void @redisFree(ptr noundef %39) #33
  store ptr null, ptr %0, align 8, !tbaa !82
  br label %clusterManagerCheckRedisReply.exit.thread43

40:                                               ; preds = %27
  %41 = getelementptr inbounds nuw i8, ptr %29, i64 140
  %42 = load i32, ptr %41, align 4, !tbaa !294
  %43 = call i32 @anetKeepAlive(ptr noundef null, i32 noundef %42, i32 noundef 15) #33
  %44 = load ptr, ptr getelementptr inbounds nuw (i8, ptr @config, i64 16), align 8, !tbaa !170
  %.not35 = icmp eq ptr %44, null
  br i1 %.not35, label %clusterManagerCheckRedisReply.exit.thread43, label %45

45:                                               ; preds = %40
  %46 = load ptr, ptr getelementptr inbounds nuw (i8, ptr @config, i64 24), align 8, !tbaa !171
  %47 = icmp eq ptr %46, null
  %48 = load ptr, ptr %0, align 8, !tbaa !82
  br i1 %47, label %49, label %51

49:                                               ; preds = %45
  %50 = call ptr (ptr, ptr, ...) @redisCommand(ptr noundef %48, ptr noundef nonnull @.str.187, ptr noundef nonnull %44) #33
  br label %53

51:                                               ; preds = %45
  %52 = call ptr (ptr, ptr, ...) @redisCommand(ptr noundef %48, ptr noundef nonnull @.str.188, ptr noundef nonnull %46, ptr noundef nonnull %44) #33
  br label %53

53:                                               ; preds = %51, %49
  %.028 = phi ptr [ %50, %49 ], [ %52, %51 ]
  %.not.i = icmp eq ptr %.028, null
  br i1 %.not.i, label %clusterManagerCheckRedisReply.exit.thread43, label %54

54:                                               ; preds = %53
  %55 = load i32, ptr %.028, align 8, !tbaa !56
  %.not19.i = icmp eq i32 %55, 6
  br i1 %.not19.i, label %clusterManagerCheckRedisReply.exit, label %clusterManagerCheckRedisReply.exit.thread47

clusterManagerCheckRedisReply.exit.thread47:      ; preds = %54
  call void @freeReplyObject(ptr noundef nonnull %.028) #33
  br label %clusterManagerCheckRedisReply.exit.thread43

clusterManagerCheckRedisReply.exit:               ; preds = %54
  %56 = load ptr, ptr %6, align 8, !tbaa !74
  %57 = load i32, ptr %8, align 8, !tbaa !77
  %58 = getelementptr inbounds nuw i8, ptr %.028, i64 32
  %59 = load ptr, ptr %58, align 8, !tbaa !36
  call void (i32, ptr, ...) @clusterManagerLog(i32 noundef 3, ptr noundef nonnull @.str.168, ptr noundef %56, i32 noundef %57, ptr noundef %59)
  call void @freeReplyObject(ptr noundef nonnull %.028) #33
  br label %clusterManagerCheckRedisReply.exit.thread43

clusterManagerCheckRedisReply.exit.thread43:      ; preds = %53, %40, %clusterManagerCheckRedisReply.exit.thread47, %clusterManagerCheckRedisReply.exit, %23, %30
  %.2 = phi i32 [ 0, %23 ], [ 0, %30 ], [ 0, %clusterManagerCheckRedisReply.exit ], [ 1, %clusterManagerCheckRedisReply.exit.thread47 ], [ 1, %40 ], [ 0, %53 ]
  ret i32 %.2
}